; Function Attrs: mustprogress nounwind uwtable
define internal fastcc noundef zeroext i1 @_ZN12_GLOBAL__N_110MasmParser23parseDirectiveCVFPODataEv(ptr noundef nonnull align 8 dereferenceable(1144) %0) unnamed_addr #0 align 2 {
  %2 = alloca %"class.llvm::StringRef", align 8
  %3 = alloca %"class.llvm::Twine", align 8
  %4 = alloca %"class.llvm::Twine", align 8
  %5 = alloca %"class.llvm::Twine", align 8
  %6 = alloca %"class.llvm::Twine", align 8
  %7 = load ptr, ptr %0, align 8
  %8 = getelementptr inbounds nuw i8, ptr %7, i64 40
  %9 = load ptr, ptr %8, align 8
  %10 = tail call noundef nonnull align 8 dereferenceable(144) ptr %9(ptr noundef nonnull align 8 dereferenceable(1144) %0) #24
  %11 = tail call ptr @_ZNK4llvm10MCAsmLexer6getLocEv(ptr noundef nonnull align 8 dereferenceable(144) %10) #24
  call void @llvm.memset.p0.i64(ptr noundef nonnull align 8 dereferenceable(16) %2, i8 0, i64 16, i1 false)
  %12 = load ptr, ptr %0, align 8
  %13 = getelementptr inbounds nuw i8, ptr %12, i64 192
  %14 = load ptr, ptr %13, align 8
  %15 = call noundef zeroext i1 %14(ptr noundef nonnull align 8 dereferenceable(1144) %0, ptr noundef nonnull align 8 dereferenceable(16) %2) #24
  br i1 %15, label %16, label %20

16:                                               ; preds = %1
  %17 = getelementptr inbounds nuw i8, ptr %3, i64 32
  %18 = getelementptr inbounds nuw i8, ptr %3, i64 33
  store i8 1, ptr %18, align 1
  store ptr @.str.297, ptr %3, align 8
  store i8 3, ptr %17, align 8
  %19 = call noundef zeroext i1 @_ZN4llvm11MCAsmParser8TokErrorERKNS_5TwineENS_7SMRangeE(ptr noundef nonnull align 8 dereferenceable(34) %0, ptr noundef nonnull align 8 dereferenceable(34) %3, ptr null, ptr null) #24
  br label %47

20:                                               ; preds = %1
  %21 = getelementptr inbounds nuw i8, ptr %4, i64 32
  %22 = getelementptr inbounds nuw i8, ptr %4, i64 33
  store i8 1, ptr %22, align 1
  store ptr @.str.298, ptr %4, align 8
  store i8 3, ptr %21, align 8
  %23 = call noundef zeroext i1 @_ZN4llvm11MCAsmParser8parseEOLERKNS_5TwineE(ptr noundef nonnull align 8 dereferenceable(34) %0, ptr noundef nonnull align 8 dereferenceable(34) %4) #24
  br i1 %23, label %24, label %28

24:                                               ; preds = %20
  %25 = getelementptr inbounds nuw i8, ptr %5, i64 32
  %26 = getelementptr inbounds nuw i8, ptr %5, i64 33
  store i8 1, ptr %26, align 1
  store ptr @.str.299, ptr %5, align 8
  store i8 3, ptr %25, align 8
  %27 = call noundef zeroext i1 @_ZN4llvm11MCAsmParser14addErrorSuffixERKNS_5TwineE(ptr noundef nonnull align 8 dereferenceable(34) %0, ptr noundef nonnull align 8 dereferenceable(34) %5) #24
  br label %47

28:                                               ; preds = %20
  %29 = load ptr, ptr %0, align 8
  %30 = getelementptr inbounds nuw i8, ptr %29, i64 48
  %31 = load ptr, ptr %30, align 8
  %32 = call noundef nonnull align 8 dereferenceable(2432) ptr %31(ptr noundef nonnull align 8 dereferenceable(1144) %0) #24
  %33 = getelementptr inbounds nuw i8, ptr %6, i64 32
  store i8 5, ptr %33, align 8
  %34 = getelementptr inbounds nuw i8, ptr %6, i64 33
  store i8 1, ptr %34, align 1
  %35 = load ptr, ptr %2, align 8
  store ptr %35, ptr %6, align 8
  %36 = getelementptr inbounds nuw i8, ptr %2, i64 8
  %37 = load i64, ptr %36, align 8
  %38 = getelementptr inbounds nuw i8, ptr %6, i64 8
  store i64 %37, ptr %38, align 8
  %39 = call noundef ptr @_ZN4llvm9MCContext17getOrCreateSymbolERKNS_5TwineE(ptr noundef nonnull align 8 dereferenceable(2432) %32, ptr noundef nonnull align 8 dereferenceable(34) %6) #24
  %40 = load ptr, ptr %0, align 8
  %41 = getelementptr inbounds nuw i8, ptr %40, i64 56
  %42 = load ptr, ptr %41, align 8
  %43 = call noundef nonnull align 8 dereferenceable(288) ptr %42(ptr noundef nonnull align 8 dereferenceable(1144) %0) #24
  %44 = load ptr, ptr %43, align 8
  %45 = getelementptr inbounds nuw i8, ptr %44, i64 840
  %46 = load ptr, ptr %45, align 8
  call void %46(ptr noundef nonnull align 8 dereferenceable(288) %43, ptr noundef %39, ptr %11) #24
  br label %47

47:                                               ; preds = %28, %24, %16
  %.0 = phi i1 [ %19, %16 ], [ %27, %24 ], [ false, %28 ]
  ret i1 %.0
}